target datalayout = "e-m:e-p270:32:32-p271:32:32-p272:64:64-i64:64-i128:128-f80:128-n8:16:32:64-S128"
target triple = "x86_64-pc-linux-gnu"

%class.ProbabilityTable = type { i32, %"class.std::vector.13" }
%"class.std::vector.13" = type { %"struct.std::_Vector_base.14" }
%"struct.std::_Vector_base.14" = type { %"struct.std::_Vector_base<TableEntry<unsigned int, eVariableScope> *, std::allocator<TableEntry<unsigned int, eVariableScope> *>>::_Vector_impl" }
%"struct.std::_Vector_base<TableEntry<unsigned int, eVariableScope> *, std::allocator<TableEntry<unsigned int, eVariableScope> *>>::_Vector_impl" = type { %"struct.std::_Vector_base<TableEntry<unsigned int, eVariableScope> *, std::allocator<TableEntry<unsigned int, eVariableScope> *>>::_Vector_impl_data" }
%"struct.std::_Vector_base<TableEntry<unsigned int, eVariableScope> *, std::allocator<TableEntry<unsigned int, eVariableScope> *>>::_Vector_impl_data" = type { ptr, ptr, ptr }
%class.TableEntry = type { i32, i32 }

@_ZN16VariableSelector11scopeTable_E = dso_local global ptr null, align 8

; Function Attrs: mustprogress nounwind uwtable
define linkonce_odr dso_local void @_ZNSt12_Destroy_auxILb1EE9__destroyIPP10TableEntryIj14eVariableScopeEEEvT_S7_(ptr noundef %0, ptr noundef %1) #4 comdat align 2 {
  %3 = alloca ptr, align 8
  %4 = alloca ptr, align 8
  store ptr %0, ptr %3, align 8
  store ptr %1, ptr %4, align 8
  ret void
}

; Function Attrs: mustprogress nounwind uwtable
define linkonce_odr dso_local void @_ZNSt15__new_allocatorIP10TableEntryIj14eVariableScopeEEC2Ev(ptr noundef nonnull align 1 dereferenceable(1) %0) unnamed_addr #4 comdat align 2 {
  %2 = alloca ptr, align 8
  store ptr %0, ptr %2, align 8
  ret void
}

; Function Attrs: mustprogress uwtable
define linkonce_odr dso_local void @_ZSt8_DestroyIPP10TableEntryIj14eVariableScopeEEvT_S5_(ptr noundef %0, ptr noundef %1) #5 comdat {
  %3 = alloca ptr, align 8
  %4 = alloca ptr, align 8
  store ptr %0, ptr %3, align 8
  store ptr %1, ptr %4, align 8
  %5 = load ptr, ptr %3, align 8
  %6 = load ptr, ptr %4, align 8
  call void @_ZNSt12_Destroy_auxILb1EE9__destroyIPP10TableEntryIj14eVariableScopeEEEvT_S7_(ptr noundef %5, ptr noundef %6)
  ret void
}

; Function Attrs: mustprogress nounwind uwtable
define linkonce_odr dso_local void @_ZNSt12_Vector_baseIP10TableEntryIj14eVariableScopeESaIS3_EE17_Vector_impl_dataC2Ev(ptr noundef nonnull align 8 dereferenceable(24) %0) unnamed_addr #4 comdat align 2 {
  %2 = alloca ptr, align 8
  store ptr %0, ptr %2, align 8
  %3 = load ptr, ptr %2, align 8
  %4 = getelementptr inbounds %"struct.std::_Vector_base<TableEntry<unsigned int, eVariableScope> *, std::allocator<TableEntry<unsigned int, eVariableScope> *>>::_Vector_impl_data", ptr %3, i32 0, i32 0
  store ptr null, ptr %4, align 8
  %5 = getelementptr inbounds %"struct.std::_Vector_base<TableEntry<unsigned int, eVariableScope> *, std::allocator<TableEntry<unsigned int, eVariableScope> *>>::_Vector_impl_data", ptr %3, i32 0, i32 1
  store ptr null, ptr %5, align 8
  %6 = getelementptr inbounds %"struct.std::_Vector_base<TableEntry<unsigned int, eVariableScope> *, std::allocator<TableEntry<unsigned int, eVariableScope> *>>::_Vector_impl_data", ptr %3, i32 0, i32 2
  store ptr null, ptr %6, align 8
  ret void
}

; Function Attrs: mustprogress nounwind uwtable
define linkonce_odr dso_local void @_ZNSaIP10TableEntryIj14eVariableScopeEEC2Ev(ptr noundef nonnull align 1 dereferenceable(1) %0) unnamed_addr #4 comdat align 2 {
  %2 = alloca ptr, align 8
  store ptr %0, ptr %2, align 8
  %3 = load ptr, ptr %2, align 8
  call void @_ZNSt15__new_allocatorIP10TableEntryIj14eVariableScopeEEC2Ev(ptr noundef nonnull align 1 dereferenceable(1) %3) #3
  ret void
}

; Function Attrs: noreturn nounwind uwtable
define linkonce_odr hidden void @__clang_call_terminate(ptr noundef %0) #11 comdat {
  %2 = call ptr @__cxa_begin_catch(ptr %0) #3
  call void @_ZSt9terminatev() #14
  unreachable
}

; Function Attrs: mustprogress uwtable
define linkonce_odr dso_local void @_ZSt8_DestroyIPP10TableEntryIj14eVariableScopeES3_EvT_S5_RSaIT0_E(ptr noundef %0, ptr noundef %1, ptr noundef nonnull align 1 dereferenceable(1) %2) #5 comdat {
  %4 = alloca ptr, align 8
  %5 = alloca ptr, align 8
  %6 = alloca ptr, align 8
  store ptr %0, ptr %4, align 8
  store ptr %1, ptr %5, align 8
  store ptr %2, ptr %6, align 8
  %7 = load ptr, ptr %4, align 8
  %8 = load ptr, ptr %5, align 8
  call void @_ZSt8_DestroyIPP10TableEntryIj14eVariableScopeEEvT_S5_(ptr noundef %7, ptr noundef %8)
  ret void
}

; Function Attrs: mustprogress nounwind uwtable
define linkonce_odr dso_local noundef nonnull align 1 dereferenceable(1) ptr @_ZNSt12_Vector_baseIP10TableEntryIj14eVariableScopeESaIS3_EE19_M_get_Tp_allocatorEv(ptr noundef nonnull align 8 dereferenceable(24) %0) #4 comdat align 2 {
  %2 = alloca ptr, align 8
  store ptr %0, ptr %2, align 8
  %3 = load ptr, ptr %2, align 8
  %4 = getelementptr inbounds %"struct.std::_Vector_base.14", ptr %3, i32 0, i32 0
  ret ptr %4
}

; Function Attrs: mustprogress nounwind uwtable
define linkonce_odr dso_local void @_ZNSt12_Vector_baseIP10TableEntryIj14eVariableScopeESaIS3_EE12_Vector_implC2Ev(ptr noundef nonnull align 8 dereferenceable(24) %0) unnamed_addr #4 comdat align 2 {
  %2 = alloca ptr, align 8
  store ptr %0, ptr %2, align 8
  %3 = load ptr, ptr %2, align 8
  call void @_ZNSaIP10TableEntryIj14eVariableScopeEEC2Ev(ptr noundef nonnull align 1 dereferenceable(1) %3) #3
  call void @_ZNSt12_Vector_baseIP10TableEntryIj14eVariableScopeESaIS3_EE17_Vector_impl_dataC2Ev(ptr noundef nonnull align 8 dereferenceable(24) %3) #3
  ret void
}

; Function Attrs: mustprogress nounwind uwtable
define linkonce_odr dso_local void @_ZNSt6vectorIP10TableEntryIj14eVariableScopeESaIS3_EE15_M_erase_at_endEPS3_(ptr noundef nonnull align 8 dereferenceable(24) %0, ptr noundef %1) #4 comdat align 2 personality ptr @__gxx_personality_v0 {
  %3 = alloca ptr, align 8
  %4 = alloca ptr, align 8
  %5 = alloca i64, align 8
  store ptr %0, ptr %3, align 8
  store ptr %1, ptr %4, align 8
  %6 = load ptr, ptr %3, align 8
  %7 = getelementptr inbounds %"struct.std::_Vector_base.14", ptr %6, i32 0, i32 0
  %8 = getelementptr inbounds %"struct.std::_Vector_base<TableEntry<unsigned int, eVariableScope> *, std::allocator<TableEntry<unsigned int, eVariableScope> *>>::_Vector_impl_data", ptr %7, i32 0, i32 1
  %9 = load ptr, ptr %8, align 8
  %10 = load ptr, ptr %4, align 8
  %11 = ptrtoint ptr %9 to i64
  %12 = ptrtoint ptr %10 to i64
  %13 = sub i64 %11, %12
  %14 = sdiv exact i64 %13, 8
  store i64 %14, ptr %5, align 8
  %15 = load i64, ptr %5, align 8
  %16 = icmp ne i64 %15, 0
  br i1 %16, label %17, label %27

17:                                               ; preds = %2
  %18 = load ptr, ptr %4, align 8
  %19 = getelementptr inbounds %"struct.std::_Vector_base.14", ptr %6, i32 0, i32 0
  %20 = getelementptr inbounds %"struct.std::_Vector_base<TableEntry<unsigned int, eVariableScope> *, std::allocator<TableEntry<unsigned int, eVariableScope> *>>::_Vector_impl_data", ptr %19, i32 0, i32 1
  %21 = load ptr, ptr %20, align 8
  %22 = call noundef nonnull align 1 dereferenceable(1) ptr @_ZNSt12_Vector_baseIP10TableEntryIj14eVariableScopeESaIS3_EE19_M_get_Tp_allocatorEv(ptr noundef nonnull align 8 dereferenceable(24) %6) #3
  invoke void @_ZSt8_DestroyIPP10TableEntryIj14eVariableScopeES3_EvT_S5_RSaIT0_E(ptr noundef %18, ptr noundef %21, ptr noundef nonnull align 1 dereferenceable(1) %22)
          to label %23 unwind label %28

23:                                               ; preds = %17
  %24 = load ptr, ptr %4, align 8
  %25 = getelementptr inbounds %"struct.std::_Vector_base.14", ptr %6, i32 0, i32 0
  %26 = getelementptr inbounds %"struct.std::_Vector_base<TableEntry<unsigned int, eVariableScope> *, std::allocator<TableEntry<unsigned int, eVariableScope> *>>::_Vector_impl_data", ptr %25, i32 0, i32 1
  store ptr %24, ptr %26, align 8
  br label %27

27:                                               ; preds = %23, %2
  ret void

28:                                               ; preds = %17
  %29 = landingpad { ptr, i32 }
          catch ptr null
  %30 = extractvalue { ptr, i32 } %29, 0
  call void @__clang_call_terminate(ptr %30) #14
  unreachable
}

; Function Attrs: mustprogress nounwind uwtable
define linkonce_odr dso_local void @_ZNSt12_Vector_baseIP10TableEntryIj14eVariableScopeESaIS3_EEC2Ev(ptr noundef nonnull align 8 dereferenceable(24) %0) unnamed_addr #4 comdat align 2 {
  %2 = alloca ptr, align 8
  store ptr %0, ptr %2, align 8
  %3 = load ptr, ptr %2, align 8
  %4 = getelementptr inbounds %"struct.std::_Vector_base.14", ptr %3, i32 0, i32 0
  call void @_ZNSt12_Vector_baseIP10TableEntryIj14eVariableScopeESaIS3_EE12_Vector_implC2Ev(ptr noundef nonnull align 8 dereferenceable(24) %4) #3
  ret void
}

; Function Attrs: mustprogress nounwind uwtable
define linkonce_odr dso_local void @_ZN10TableEntryIj14eVariableScopeEC2EjS0_(ptr noundef nonnull align 4 dereferenceable(8) %0, i32 noundef %1, i32 noundef %2) unnamed_addr #4 comdat align 2 {
  %4 = alloca ptr, align 8
  %5 = alloca i32, align 4
  %6 = alloca i32, align 4
  store ptr %0, ptr %4, align 8
  store i32 %1, ptr %5, align 4
  store i32 %2, ptr %6, align 4
  %7 = load ptr, ptr %4, align 8
  %8 = getelementptr inbounds %class.TableEntry, ptr %7, i32 0, i32 0
  %9 = load i32, ptr %5, align 4
  store i32 %9, ptr %8, align 4
  %10 = getelementptr inbounds %class.TableEntry, ptr %7, i32 0, i32 1
  %11 = load i32, ptr %6, align 4
  store i32 %11, ptr %10, align 4
  ret void
}

; Function Attrs: mustprogress nounwind uwtable
define linkonce_odr dso_local void @_ZNSt6vectorIP10TableEntryIj14eVariableScopeESaIS3_EE5clearEv(ptr noundef nonnull align 8 dereferenceable(24) %0) #4 comdat align 2 {
  %2 = alloca ptr, align 8
  store ptr %0, ptr %2, align 8
  %3 = load ptr, ptr %2, align 8
  %4 = getelementptr inbounds %"struct.std::_Vector_base.14", ptr %3, i32 0, i32 0
  %5 = getelementptr inbounds %"struct.std::_Vector_base<TableEntry<unsigned int, eVariableScope> *, std::allocator<TableEntry<unsigned int, eVariableScope> *>>::_Vector_impl_data", ptr %4, i32 0, i32 0
  %6 = load ptr, ptr %5, align 8
  call void @_ZNSt6vectorIP10TableEntryIj14eVariableScopeESaIS3_EE15_M_erase_at_endEPS3_(ptr noundef nonnull align 8 dereferenceable(24) %3, ptr noundef %6) #3
  ret void
}

; Function Attrs: mustprogress nounwind uwtable
define linkonce_odr dso_local void @_ZNSt6vectorIP10TableEntryIj14eVariableScopeESaIS3_EEC2Ev(ptr noundef nonnull align 8 dereferenceable(24) %0) unnamed_addr #4 comdat align 2 {
  %2 = alloca ptr, align 8
  store ptr %0, ptr %2, align 8
  %3 = load ptr, ptr %2, align 8
  call void @_ZNSt12_Vector_baseIP10TableEntryIj14eVariableScopeESaIS3_EEC2Ev(ptr noundef nonnull align 8 dereferenceable(24) %3) #3
  ret void
}

; Function Attrs: mustprogress uwtable
define linkonce_odr dso_local void @_ZN16ProbabilityTableIj14eVariableScopeE8add_elemEjS0_(ptr noundef nonnull align 8 dereferenceable(32) %0, i32 noundef %1, i32 noundef %2) #5 comdat align 2 personality ptr @__gxx_personality_v0 {
  %4 = alloca ptr, align 8
  %5 = alloca i32, align 4
  %6 = alloca i32, align 4
  %7 = alloca ptr, align 8
  %8 = alloca ptr, align 8
  %9 = alloca i32, align 4
  store ptr %0, ptr %4, align 8
  store i32 %1, ptr %5, align 4
  store i32 %2, ptr %6, align 4
  %10 = load ptr, ptr %4, align 8
  %11 = call noalias noundef nonnull ptr @_Znwm(i64 noundef 8) #16
  %12 = load i32, ptr %5, align 4
  %13 = load i32, ptr %6, align 4
  invoke void @_ZN10TableEntryIj14eVariableScopeEC2EjS0_(ptr noundef nonnull align 4 dereferenceable(8) %11, i32 noundef %12, i32 noundef %13)
          to label %14 unwind label %16

14:                                               ; preds = %3
  store ptr %11, ptr %7, align 8
  %15 = load ptr, ptr %7, align 8
  call void @_ZN16ProbabilityTableIj14eVariableScopeE13sorted_insertEP10TableEntryIjS0_E(ptr noundef nonnull align 8 dereferenceable(32) %10, ptr noundef %15)
  ret void

16:                                               ; preds = %3
  %17 = landingpad { ptr, i32 }
          cleanup
  %18 = extractvalue { ptr, i32 } %17, 0
  store ptr %18, ptr %8, align 8
  %19 = extractvalue { ptr, i32 } %17, 1
  store i32 %19, ptr %9, align 4
  call void @_ZdlPv(ptr noundef %11) #15
  br label %20

20:                                               ; preds = %16
  %21 = load ptr, ptr %8, align 8
  %22 = load i32, ptr %9, align 4
  %23 = insertvalue { ptr, i32 } poison, ptr %21, 0
  %24 = insertvalue { ptr, i32 } %23, i32 %22, 1
  resume { ptr, i32 } %24
}

; Function Attrs: mustprogress nounwind uwtable
define linkonce_odr dso_local void @_ZN16ProbabilityTableIj14eVariableScopeEC2Ev(ptr noundef nonnull align 8 dereferenceable(32) %0) unnamed_addr #4 comdat align 2 {
  %2 = alloca ptr, align 8
  store ptr %0, ptr %2, align 8
  %3 = load ptr, ptr %2, align 8
  %4 = getelementptr inbounds %class.ProbabilityTable, ptr %3, i32 0, i32 0
  store i32 0, ptr %4, align 8
  %5 = getelementptr inbounds %class.ProbabilityTable, ptr %3, i32 0, i32 1
  call void @_ZNSt6vectorIP10TableEntryIj14eVariableScopeESaIS3_EEC2Ev(ptr noundef nonnull align 8 dereferenceable(24) %5) #3
  %6 = getelementptr inbounds %class.ProbabilityTable, ptr %3, i32 0, i32 1
  call void @_ZNSt6vectorIP10TableEntryIj14eVariableScopeESaIS3_EE5clearEv(ptr noundef nonnull align 8 dereferenceable(24) %6) #3
  ret void
}

; Function Attrs: mustprogress uwtable
define dso_local void @_ZN16VariableSelector14InitScopeTableEv() #5 align 2 personality ptr @__gxx_personality_v0 {
  %1 = alloca ptr, align 8
  %2 = alloca i32, align 4
  %3 = load ptr, ptr @_ZN16VariableSelector11scopeTable_E, align 8
  %4 = icmp eq ptr %3, null
  br i1 %4, label %5, label %23

5:                                                ; preds = %0
  %6 = call noalias noundef nonnull ptr @_Znwm(i64 noundef 32) #16
  invoke void @_ZN16ProbabilityTableIj14eVariableScopeEC2Ev(ptr noundef nonnull align 8 dereferenceable(32) %6)
          to label %7 unwind label %14

7:                                                ; preds = %5
  store ptr %6, ptr @_ZN16VariableSelector11scopeTable_E, align 8
  %8 = call noundef zeroext i1 @_ZN9CGOptions16global_variablesEv()
  br i1 %8, label %9, label %18

9:                                                ; preds = %7
  %10 = load ptr, ptr @_ZN16VariableSelector11scopeTable_E, align 8
  call void @_ZN16ProbabilityTableIj14eVariableScopeE8add_elemEjS0_(ptr noundef nonnull align 8 dereferenceable(32) %10, i32 noundef 35, i32 noundef 0)
  %11 = load ptr, ptr @_ZN16VariableSelector11scopeTable_E, align 8
  call void @_ZN16ProbabilityTableIj14eVariableScopeE8add_elemEjS0_(ptr noundef nonnull align 8 dereferenceable(32) %11, i32 noundef 65, i32 noundef 1)
  %12 = load ptr, ptr @_ZN16VariableSelector11scopeTable_E, align 8
  call void @_ZN16ProbabilityTableIj14eVariableScopeE8add_elemEjS0_(ptr noundef nonnull align 8 dereferenceable(32) %12, i32 noundef 95, i32 noundef 2)
  %13 = load ptr, ptr @_ZN16VariableSelector11scopeTable_E, align 8
  call void @_ZN16ProbabilityTableIj14eVariableScopeE8add_elemEjS0_(ptr noundef nonnull align 8 dereferenceable(32) %13, i32 noundef 100, i32 noundef 3)
  br label %22

14:                                               ; preds = %5
  %15 = landingpad { ptr, i32 }
          cleanup
  %16 = extractvalue { ptr, i32 } %15, 0
  store ptr %16, ptr %1, align 8
  %17 = extractvalue { ptr, i32 } %15, 1
  store i32 %17, ptr %2, align 4
  call void @_ZdlPv(ptr noundef %6) #15
  br label %24

18:                                               ; preds = %7
  %19 = load ptr, ptr @_ZN16VariableSelector11scopeTable_E, align 8
  call void @_ZN16ProbabilityTableIj14eVariableScopeE8add_elemEjS0_(ptr noundef nonnull align 8 dereferenceable(32) %19, i32 noundef 50, i32 noundef 1)
  %20 = load ptr, ptr @_ZN16VariableSelector11scopeTable_E, align 8
  call void @_ZN16ProbabilityTableIj14eVariableScopeE8add_elemEjS0_(ptr noundef nonnull align 8 dereferenceable(32) %20, i32 noundef 95, i32 noundef 2)
  %21 = load ptr, ptr @_ZN16VariableSelector11scopeTable_E, align 8
  call void @_ZN16ProbabilityTableIj14eVariableScopeE8add_elemEjS0_(ptr noundef nonnull align 8 dereferenceable(32) %21, i32 noundef 100, i32 noundef 3)
  br label %22

22:                                               ; preds = %18, %9
  br label %23

23:                                               ; preds = %22, %0
  ret void

24:                                               ; preds = %14
  %25 = load ptr, ptr %1, align 8
  %26 = load i32, ptr %2, align 4
  %27 = insertvalue { ptr, i32 } poison, ptr %25, 0
  %28 = insertvalue { ptr, i32 } %27, i32 %26, 1
  resume { ptr, i32 } %28
}